ccopy_reg
_reconstructor
p0
(cgoogle.oauth2.credentials
Credentials
p1
c__builtin__
object
p2
Ntp3
Rp4
(dp5
S'_token_uri'
p6
Vhttps://oauth2.googleapis.com/token
p7
sS'_scopes'
p8
(lp9
S'https://mail.google.com/'
p10
asS'_id_token'
p11
NsS'token'
p12
Vya29.GlzKBlnB0cl0Y61gnJoTFI1_UX49cC2d-AckkbpOGjDlyH-sCqrMJLQJ--B0-TEzNuXLsWZpMUqKsMicCcYAgvfAsLXshApaOhBRAXsvgaZlGhA_zk8XTHNjTr6Fnw
p13
sS'_refresh_token'
p14
V1/wAKO79gOszhh_Zcs7X85IF2lC0C5AB3uKqa9AKhol0Q
p15
sS'_client_secret'
p16
VH7vX1WBozPHbs6xlx5sszaSX
p17
sS'_client_id'
p18
V627245440635-26qtb7sfv0btiqk9v60tq7ok6a2ai9ta.apps.googleusercontent.com
p19
sS'expiry'
p20
cdatetime
datetime
p21
(S'\x07\xe3\x03\x0b\x179:\x06\x91g'
p22
tp23
Rp24
sb.